; Function Attrs: nounwind uwtable
define internal ptr @ml_kem_d2i_PKCS8(ptr noundef captures(none) %0, i64 noundef %1, ptr noundef %2) #0 {
  %4 = load ptr, ptr %0, align 8, !tbaa !15
  %5 = trunc i64 %1 to i32
  %6 = getelementptr inbounds nuw i8, ptr %2, i64 264
  %7 = load ptr, ptr %6, align 8, !tbaa !11
  %8 = getelementptr inbounds nuw i8, ptr %7, i64 24
  %9 = load i32, ptr %8, align 8, !tbaa !41
  %10 = load ptr, ptr %2, align 8, !tbaa !3
  %11 = getelementptr inbounds nuw i8, ptr %2, i64 8
  %12 = tail call ptr @ossl_ml_kem_d2i_PKCS8(ptr noundef %4, i32 noundef %5, i32 noundef %9, ptr noundef %10, ptr noundef nonnull %11) #7
  %.not = icmp eq ptr %12, null
  br i1 %.not, label %16, label %13

13:                                               ; preds = %3
  %14 = load ptr, ptr %0, align 8, !tbaa !15
  %15 = getelementptr inbounds i8, ptr %14, i64 %1
  store ptr %15, ptr %0, align 8, !tbaa !15
  br label %16

16:                                               ; preds = %13, %3
  ret ptr %12
}